target datalayout = "e-m:e-p270:32:32-p271:32:32-p272:64:64-i64:64-i128:128-f80:128-n8:16:32:64-S128"
target triple = "x86_64-pc-linux-gnu"

%struct.expert_field = type { i32, i32 }
%struct.nstime_t = type { i64, i32 }

@hf_hdr_name_value = internal global i32 0, align 4
@ei_wsp_oversized_uintvar = internal global %struct.expert_field zeroinitializer, align 4
@ei_wsp_header_invalid_value = internal global %struct.expert_field zeroinitializer, align 4
@ett_tod_value = internal global i32 0, align 4
@.str.867 = private unnamed_addr constant [23 x i8] c"Requesting Time Of Day\00", align 1
@.str.1170 = private unnamed_addr constant [16 x i8] c"Time of Day: %s\00", align 1
@.str.1171 = private unnamed_addr constant [46 x i8] c" <Warning: should be encoded as long-integer>\00", align 1

; Function Attrs: null_pointer_is_valid sspstrong uwtable
define internal i32 @wkh_tod_value_header_func(ptr noundef %0, ptr noundef %1, i32 noundef %2, ptr noundef %3, i32 noundef %4, ptr noundef %5) #1 {
  %7 = alloca ptr, align 8
  %8 = alloca ptr, align 8
  %9 = alloca i32, align 4
  %10 = alloca ptr, align 8
  %11 = alloca i32, align 4
  %12 = alloca ptr, align 8
  %13 = alloca i8, align 1
  %14 = alloca ptr, align 8
  %15 = alloca ptr, align 8
  %16 = alloca i32, align 4
  %17 = alloca i8, align 1
  %18 = alloca i32, align 4
  %19 = alloca i32, align 4
  %20 = alloca i32, align 4
  %21 = alloca i32, align 4
  %22 = alloca i32, align 4
  %23 = alloca i32, align 4
  %24 = alloca ptr, align 8
  %25 = alloca ptr, align 8
  %26 = alloca %struct.nstime_t, align 8
  store ptr %0, ptr %7, align 8
  store ptr %1, ptr %8, align 8
  store i32 %2, ptr %9, align 4
  store ptr %3, ptr %10, align 8
  store i32 %4, ptr %11, align 4
  store ptr %5, ptr %12, align 8
  call void @llvm.lifetime.start.p0(i64 1, ptr %13) #8
  store i8 0, ptr %13, align 1
  call void @llvm.lifetime.start.p0(i64 8, ptr %14) #8
  call void @llvm.lifetime.start.p0(i64 8, ptr %15) #8
  call void @llvm.lifetime.start.p0(i64 4, ptr %16) #8
  %27 = load i32, ptr %9, align 4
  %28 = add i32 %27, 1
  store i32 %28, ptr %16, align 4
  call void @llvm.lifetime.start.p0(i64 1, ptr %17) #8
  %29 = load ptr, ptr %8, align 8
  %30 = load i32, ptr %16, align 4
  %31 = call zeroext i8 @tvb_get_uint8(ptr noundef %29, i32 noundef %30)
  store i8 %31, ptr %17, align 1
  call void @llvm.lifetime.start.p0(i64 4, ptr %18) #8
  %32 = load i32, ptr %16, align 4
  store i32 %32, ptr %18, align 4
  call void @llvm.lifetime.start.p0(i64 4, ptr %19) #8
  call void @llvm.lifetime.start.p0(i64 4, ptr %20) #8
  call void @llvm.lifetime.start.p0(i64 4, ptr %21) #8
  store i32 0, ptr %21, align 4
  call void @llvm.lifetime.start.p0(i64 4, ptr %22) #8
  %33 = load i32, ptr %16, align 4
  store i32 %33, ptr %22, align 4
  call void @llvm.lifetime.start.p0(i64 4, ptr %23) #8
  call void @llvm.lifetime.start.p0(i64 8, ptr %24) #8
  store ptr null, ptr %24, align 8
  call void @llvm.lifetime.start.p0(i64 8, ptr %25) #8
  %34 = call ptr @wmem_packet_scope()
  %35 = load ptr, ptr %12, align 8
  %36 = call noalias ptr (ptr, ptr, ...) @wmem_strdup_printf(ptr noundef %34, ptr noundef @.str.1170, ptr noundef %35)
  store ptr %36, ptr %25, align 8
  call void @llvm.lifetime.start.p0(i64 16, ptr %26) #8
  %37 = load ptr, ptr %7, align 8
  %38 = load ptr, ptr %8, align 8
  %39 = load i32, ptr %9, align 4
  %40 = load i32, ptr %18, align 4
  %41 = load i32, ptr %9, align 4
  %42 = sub i32 %40, %41
  %43 = load i32, ptr @ett_tod_value, align 4
  %44 = load ptr, ptr %25, align 8
  %45 = call ptr @proto_tree_add_subtree(ptr noundef %37, ptr noundef %38, i32 noundef %39, i32 noundef %42, i32 noundef %43, ptr noundef %15, ptr noundef %44)
  store ptr %45, ptr %14, align 8
  %46 = load ptr, ptr %14, align 8
  %47 = load i32, ptr @hf_hdr_name_value, align 4
  %48 = load ptr, ptr %8, align 8
  %49 = load i32, ptr %9, align 4
  %50 = call ptr @proto_tree_add_item(ptr noundef %46, i32 noundef %47, ptr noundef %48, i32 noundef %49, i32 noundef 1, i32 noundef 0)
  %51 = load i8, ptr %17, align 1
  %52 = zext i8 %51 to i32
  %53 = and i32 %52, 128
  %54 = icmp ne i32 %53, 0
  br i1 %54, label %55, label %74

55:                                               ; preds = %6
  %56 = load i32, ptr %18, align 4
  %57 = add i32 %56, 1
  store i32 %57, ptr %18, align 4
  %58 = load i8, ptr %17, align 1
  %59 = zext i8 %58 to i32
  %60 = icmp eq i32 %59, 128
  br i1 %60, label %61, label %73

61:                                               ; preds = %55
  %62 = getelementptr inbounds nuw %struct.nstime_t, ptr %26, i32 0, i32 0
  store i64 0, ptr %62, align 8
  %63 = getelementptr inbounds nuw %struct.nstime_t, ptr %26, i32 0, i32 1
  store i32 0, ptr %63, align 8
  %64 = load ptr, ptr %7, align 8
  %65 = load i32, ptr %11, align 4
  %66 = load ptr, ptr %8, align 8
  %67 = load i32, ptr %9, align 4
  %68 = load i32, ptr %18, align 4
  %69 = load i32, ptr %9, align 4
  %70 = sub i32 %68, %69
  %71 = call ptr (ptr, i32, ptr, i32, i32, ptr, ptr, ...) @proto_tree_add_time_format_value(ptr noundef %64, i32 noundef %65, ptr noundef %66, i32 noundef %67, i32 noundef %70, ptr noundef %26, ptr noundef @.str.867)
  store ptr %71, ptr %24, align 8
  %72 = load ptr, ptr %24, align 8
  call void (ptr, ptr, ...) @proto_item_append_text(ptr noundef %72, ptr noundef @.str.1171)
  store i8 1, ptr %13, align 1
  br label %73

73:                                               ; preds = %61, %55
  br label %192

74:                                               ; preds = %6
  %75 = load i8, ptr %17, align 1
  %76 = zext i8 %75 to i32
  %77 = icmp eq i32 %76, 0
  br i1 %77, label %82, label %78

78:                                               ; preds = %74
  %79 = load i8, ptr %17, align 1
  %80 = zext i8 %79 to i32
  %81 = icmp sge i32 %80, 32
  br i1 %81, label %82, label %90

82:                                               ; preds = %78, %74
  %83 = call ptr @wmem_packet_scope()
  %84 = load ptr, ptr %8, align 8
  %85 = load i32, ptr %16, align 4
  %86 = call ptr @tvb_get_stringz_enc(ptr noundef %83, ptr noundef %84, i32 noundef %85, ptr noundef %19, i32 noundef 0)
  %87 = load i32, ptr %16, align 4
  %88 = load i32, ptr %19, align 4
  %89 = add i32 %87, %88
  store i32 %89, ptr %18, align 4
  br label %191

90:                                               ; preds = %78
  %91 = load i8, ptr %17, align 1
  %92 = zext i8 %91 to i32
  %93 = icmp eq i32 %92, 31
  br i1 %93, label %94, label %102

94:                                               ; preds = %90
  %95 = load ptr, ptr %8, align 8
  %96 = load i32, ptr %16, align 4
  %97 = add i32 %96, 1
  %98 = load ptr, ptr %10, align 8
  %99 = call i32 @tvb_get_uintvar(ptr noundef %95, i32 noundef %97, ptr noundef %20, ptr noundef %98, ptr noundef @ei_wsp_oversized_uintvar)
  store i32 %99, ptr %19, align 4
  %100 = load i32, ptr %20, align 4
  %101 = add i32 %100, 1
  store i32 %101, ptr %20, align 4
  br label %107

102:                                              ; preds = %90
  %103 = load ptr, ptr %8, align 8
  %104 = load i32, ptr %18, align 4
  %105 = call zeroext i8 @tvb_get_uint8(ptr noundef %103, i32 noundef %104)
  %106 = zext i8 %105 to i32
  store i32 %106, ptr %19, align 4
  store i32 1, ptr %20, align 4
  br label %107

107:                                              ; preds = %102, %94
  %108 = load i32, ptr %20, align 4
  %109 = load i32, ptr %19, align 4
  %110 = add i32 %108, %109
  %111 = load i32, ptr %18, align 4
  %112 = add i32 %111, %110
  store i32 %112, ptr %18, align 4
  %113 = load i8, ptr %17, align 1
  %114 = zext i8 %113 to i32
  %115 = icmp sle i32 %114, 4
  br i1 %115, label %116, label %190

116:                                              ; preds = %107
  %117 = load ptr, ptr %8, align 8
  %118 = load i32, ptr %22, align 4
  %119 = call zeroext i8 @tvb_get_uint8(ptr noundef %117, i32 noundef %118)
  %120 = zext i8 %119 to i32
  store i32 %120, ptr %23, align 4
  store i8 1, ptr %13, align 1
  %121 = load i32, ptr %23, align 4
  %122 = icmp eq i32 %121, 1
  br i1 %122, label %123, label %129

123:                                              ; preds = %116
  %124 = load ptr, ptr %8, align 8
  %125 = load i32, ptr %22, align 4
  %126 = add i32 %125, 1
  %127 = call zeroext i8 @tvb_get_uint8(ptr noundef %124, i32 noundef %126)
  %128 = zext i8 %127 to i32
  store i32 %128, ptr %21, align 4
  br label %158

129:                                              ; preds = %116
  %130 = load i32, ptr %23, align 4
  %131 = icmp eq i32 %130, 2
  br i1 %131, label %132, label %138

132:                                              ; preds = %129
  %133 = load ptr, ptr %8, align 8
  %134 = load i32, ptr %22, align 4
  %135 = add i32 %134, 1
  %136 = call zeroext i16 @tvb_get_ntohs(ptr noundef %133, i32 noundef %135)
  %137 = zext i16 %136 to i32
  store i32 %137, ptr %21, align 4
  br label %157

138:                                              ; preds = %129
  %139 = load i32, ptr %23, align 4
  %140 = icmp eq i32 %139, 3
  br i1 %140, label %141, label %146

141:                                              ; preds = %138
  %142 = load ptr, ptr %8, align 8
  %143 = load i32, ptr %22, align 4
  %144 = add i32 %143, 1
  %145 = call i32 @tvb_get_ntoh24(ptr noundef %142, i32 noundef %144)
  store i32 %145, ptr %21, align 4
  br label %156

146:                                              ; preds = %138
  %147 = load i32, ptr %23, align 4
  %148 = icmp eq i32 %147, 4
  br i1 %148, label %149, label %154

149:                                              ; preds = %146
  %150 = load ptr, ptr %8, align 8
  %151 = load i32, ptr %22, align 4
  %152 = add i32 %151, 1
  %153 = call i32 @tvb_get_ntohl(ptr noundef %150, i32 noundef %152)
  store i32 %153, ptr %21, align 4
  br label %155

154:                                              ; preds = %146
  store i8 0, ptr %13, align 1
  br label %155

155:                                              ; preds = %154, %149
  br label %156

156:                                              ; preds = %155, %141
  br label %157

157:                                              ; preds = %156, %132
  br label %158

158:                                              ; preds = %157, %123
  %159 = load i32, ptr %23, align 4
  %160 = add i32 %159, 1
  store i32 %160, ptr %23, align 4
  %161 = load i8, ptr %13, align 1, !range !6, !noundef !7
  %162 = trunc i8 %161 to i1
  br i1 %162, label %163, label %189

163:                                              ; preds = %158
  %164 = load i32, ptr %21, align 4
  %165 = zext i32 %164 to i64
  %166 = getelementptr inbounds nuw %struct.nstime_t, ptr %26, i32 0, i32 0
  store i64 %165, ptr %166, align 8
  %167 = getelementptr inbounds nuw %struct.nstime_t, ptr %26, i32 0, i32 1
  store i32 0, ptr %167, align 8
  %168 = load i32, ptr %21, align 4
  %169 = icmp eq i32 %168, 0
  br i1 %169, label %170, label %179

170:                                              ; preds = %163
  %171 = load ptr, ptr %7, align 8
  %172 = load i32, ptr %11, align 4
  %173 = load ptr, ptr %8, align 8
  %174 = load i32, ptr %9, align 4
  %175 = load i32, ptr %18, align 4
  %176 = load i32, ptr %9, align 4
  %177 = sub i32 %175, %176
  %178 = call ptr (ptr, i32, ptr, i32, i32, ptr, ptr, ...) @proto_tree_add_time_format_value(ptr noundef %171, i32 noundef %172, ptr noundef %173, i32 noundef %174, i32 noundef %177, ptr noundef %26, ptr noundef @.str.867)
  br label %188

179:                                              ; preds = %163
  %180 = load ptr, ptr %7, align 8
  %181 = load i32, ptr %11, align 4
  %182 = load ptr, ptr %8, align 8
  %183 = load i32, ptr %9, align 4
  %184 = load i32, ptr %18, align 4
  %185 = load i32, ptr %9, align 4
  %186 = sub i32 %184, %185
  %187 = call ptr @proto_tree_add_time(ptr noundef %180, i32 noundef %181, ptr noundef %182, i32 noundef %183, i32 noundef %186, ptr noundef %26)
  br label %188

188:                                              ; preds = %179, %170
  br label %189

189:                                              ; preds = %188, %158
  br label %190

190:                                              ; preds = %189, %107
  br label %191

191:                                              ; preds = %190, %82
  br label %192

192:                                              ; preds = %191, %73
  %193 = load i8, ptr %13, align 1, !range !6, !noundef !7
  %194 = trunc i8 %193 to i1
  br i1 %194, label %199, label %195

195:                                              ; preds = %192
  %196 = load ptr, ptr %10, align 8
  %197 = load ptr, ptr %15, align 8
  %198 = call ptr @expert_add_info(ptr noundef %196, ptr noundef %197, ptr noundef @ei_wsp_header_invalid_value)
  br label %199

199:                                              ; preds = %195, %192
  %200 = load i32, ptr %18, align 4
  call void @llvm.lifetime.end.p0(i64 16, ptr %26) #8
  call void @llvm.lifetime.end.p0(i64 8, ptr %25) #8
  call void @llvm.lifetime.end.p0(i64 8, ptr %24) #8
  call void @llvm.lifetime.end.p0(i64 4, ptr %23) #8
  call void @llvm.lifetime.end.p0(i64 4, ptr %22) #8
  call void @llvm.lifetime.end.p0(i64 4, ptr %21) #8
  call void @llvm.lifetime.end.p0(i64 4, ptr %20) #8
  call void @llvm.lifetime.end.p0(i64 4, ptr %19) #8
  call void @llvm.lifetime.end.p0(i64 4, ptr %18) #8
  call void @llvm.lifetime.end.p0(i64 1, ptr %17) #8
  call void @llvm.lifetime.end.p0(i64 4, ptr %16) #8
  call void @llvm.lifetime.end.p0(i64 8, ptr %15) #8
  call void @llvm.lifetime.end.p0(i64 8, ptr %14) #8
  call void @llvm.lifetime.end.p0(i64 1, ptr %13) #8
  ret i32 %200
}