; Function Attrs: null_pointer_is_valid sspstrong uwtable
define internal fastcc i32 @wkh_tod_value_header_func(ptr noundef %0, ptr noundef %1, i32 noundef %2, ptr noundef %3, i32 noundef %4, ptr noundef %5) unnamed_addr #1 {
  %7 = alloca ptr, align 8
  %8 = alloca i32, align 4
  %9 = alloca i32, align 4
  %10 = alloca %struct.nstime_t, align 8
  call void @llvm.lifetime.start.p0(i64 8, ptr nonnull %7) #5
  %11 = add i32 %2, 1
  %12 = tail call zeroext i8 @tvb_get_uint8(ptr noundef %1, i32 noundef %11)
  call void @llvm.lifetime.start.p0(i64 4, ptr nonnull %8) #5
  call void @llvm.lifetime.start.p0(i64 4, ptr nonnull %9) #5
  %13 = tail call ptr @wmem_packet_scope()
  %14 = tail call noalias ptr (ptr, ptr, ...) @wmem_strdup_printf(ptr noundef %13, ptr noundef nonnull @.str.1170, ptr noundef %5)
  call void @llvm.lifetime.start.p0(i64 16, ptr nonnull %10) #5
  %15 = load i32, ptr @ett_tod_value, align 4
  %16 = call ptr @proto_tree_add_subtree(ptr noundef %0, ptr noundef %1, i32 noundef %2, i32 noundef 1, i32 noundef %15, ptr noundef nonnull %7, ptr noundef %14)
  %17 = load i32, ptr @hf_hdr_name_value, align 4
  %18 = call ptr @proto_tree_add_item(ptr noundef %16, i32 noundef %17, ptr noundef %1, i32 noundef %2, i32 noundef 1, i32 noundef 0)
  %.not = icmp sgt i8 %12, -1
  br i1 %.not, label %25, label %19

19:                                               ; preds = %6
  %20 = add i32 %2, 2
  %21 = icmp eq i8 %12, -128
  br i1 %21, label %22, label %67

22:                                               ; preds = %19
  store i64 0, ptr %10, align 8
  %23 = getelementptr inbounds nuw i8, ptr %10, i64 8
  store i32 0, ptr %23, align 8
  %24 = call ptr (ptr, i32, ptr, i32, i32, ptr, ptr, ...) @proto_tree_add_time_format_value(ptr noundef %0, i32 noundef %4, ptr noundef %1, i32 noundef %2, i32 noundef 2, ptr noundef nonnull %10, ptr noundef nonnull @.str.867)
  call void (ptr, ptr, ...) @proto_item_append_text(ptr noundef %24, ptr noundef nonnull @.str.1171)
  br label %70

25:                                               ; preds = %6
  %26 = add nsw i8 %12, -32
  %or.cond = icmp ult i8 %26, -31
  br i1 %or.cond, label %27, label %32

27:                                               ; preds = %25
  %28 = call ptr @wmem_packet_scope()
  %29 = call ptr @tvb_get_stringz_enc(ptr noundef %28, ptr noundef %1, i32 noundef %11, ptr noundef nonnull %8, i32 noundef 0)
  %30 = load i32, ptr %8, align 4
  %31 = add i32 %30, %11
  br label %67

32:                                               ; preds = %25
  %33 = icmp eq i8 %12, 31
  br i1 %33, label %.thread, label %40

.thread:                                          ; preds = %32
  %34 = add i32 %2, 2
  %35 = call i32 @tvb_get_uintvar(ptr noundef %1, i32 noundef %34, ptr noundef nonnull %9, ptr noundef %3, ptr noundef nonnull @ei_wsp_oversized_uintvar)
  store i32 %35, ptr %8, align 4
  %36 = load i32, ptr %9, align 4
  %37 = add i32 %36, 1
  store i32 %37, ptr %9, align 4
  %38 = add i32 %35, %11
  %39 = add i32 %38, %37
  br label %67

40:                                               ; preds = %32
  %41 = call zeroext i8 @tvb_get_uint8(ptr noundef %1, i32 noundef %11)
  %42 = zext i8 %41 to i32
  store i32 %42, ptr %8, align 4
  store i32 1, ptr %9, align 4
  %43 = add i32 %2, 2
  %44 = add i32 %43, %42
  %45 = icmp samesign ult i8 %12, 5
  br i1 %45, label %46, label %67

46:                                               ; preds = %40
  %47 = call zeroext i8 @tvb_get_uint8(ptr noundef %1, i32 noundef %11)
  switch i8 %47, label %67 [
    i8 1, label %48
    i8 2, label %51
    i8 3, label %54
    i8 4, label %56
  ]

48:                                               ; preds = %46
  %49 = call zeroext i8 @tvb_get_uint8(ptr noundef %1, i32 noundef %43)
  %50 = zext i8 %49 to i32
  br label %58

51:                                               ; preds = %46
  %52 = call zeroext i16 @tvb_get_ntohs(ptr noundef %1, i32 noundef %43)
  %53 = zext i16 %52 to i32
  br label %58

54:                                               ; preds = %46
  %55 = call i32 @tvb_get_ntoh24(ptr noundef %1, i32 noundef %43)
  br label %58

56:                                               ; preds = %46
  %57 = call i32 @tvb_get_ntohl(ptr noundef %1, i32 noundef %43)
  br label %58

58:                                               ; preds = %48, %51, %54, %56
  %.073.ph = phi i32 [ %57, %56 ], [ %55, %54 ], [ %53, %51 ], [ %50, %48 ]
  %59 = zext i32 %.073.ph to i64
  store i64 %59, ptr %10, align 8
  %60 = getelementptr inbounds nuw i8, ptr %10, i64 8
  store i32 0, ptr %60, align 8
  %61 = icmp eq i32 %.073.ph, 0
  %62 = sub i32 %44, %2
  br i1 %61, label %63, label %65

63:                                               ; preds = %58
  %64 = call ptr (ptr, i32, ptr, i32, i32, ptr, ptr, ...) @proto_tree_add_time_format_value(ptr noundef %0, i32 noundef %4, ptr noundef %1, i32 noundef %2, i32 noundef %62, ptr noundef nonnull %10, ptr noundef nonnull @.str.867)
  br label %70

65:                                               ; preds = %58
  %66 = call ptr @proto_tree_add_time(ptr noundef %0, i32 noundef %4, ptr noundef %1, i32 noundef %2, i32 noundef %62, ptr noundef nonnull %10)
  br label %70

67:                                               ; preds = %19, %27, %40, %.thread, %46
  %.072.ph = phi i32 [ %44, %46 ], [ %39, %.thread ], [ %44, %40 ], [ %31, %27 ], [ %20, %19 ]
  %68 = load ptr, ptr %7, align 8
  %69 = call ptr @expert_add_info(ptr noundef %3, ptr noundef %68, ptr noundef nonnull @ei_wsp_header_invalid_value)
  br label %70

70:                                               ; preds = %22, %63, %65, %67
  %.07287 = phi i32 [ %.072.ph, %67 ], [ %20, %22 ], [ %44, %63 ], [ %44, %65 ]
  call void @llvm.lifetime.end.p0(i64 16, ptr nonnull %10) #5
  call void @llvm.lifetime.end.p0(i64 4, ptr nonnull %9) #5
  call void @llvm.lifetime.end.p0(i64 4, ptr nonnull %8) #5
  call void @llvm.lifetime.end.p0(i64 8, ptr nonnull %7) #5
  ret i32 %.07287
}